EXPORTS
	??0TVRRename@@QAE@AAVRFs@@@Z @ 1 NONAME ; TVRRename::TVRRename(class RFs &)
	?AACAudioModeL@VRUtils@@SAHXZ @ 2 NONAME ; int VRUtils::AACAudioModeL(void)
	?AACBitrateL@VRUtils@@SAIXZ @ 3 NONAME ; unsigned int VRUtils::AACBitrateL(void)
	?AACSamplerateL@VRUtils@@SAHXZ @ 4 NONAME ; int VRUtils::AACSamplerateL(void)
	?AMRBitrateL@VRUtils@@SAIXZ @ 5 NONAME ; unsigned int VRUtils::AMRBitrateL(void)
	?DefaultMemoDriveL@VRUtils@@SAHXZ @ 6 NONAME ; int VRUtils::DefaultMemoDriveL(void)
	?DefaultSpeakerL@VRUtils@@SA?AW4TVRSpeaker@@XZ @ 7 NONAME ; enum TVRSpeaker VRUtils::DefaultSpeakerL(void)
	?DefaultVolumeL@VRUtils@@SAHW4TVRSpeaker@@@Z @ 8 NONAME ; int VRUtils::DefaultVolumeL(enum TVRSpeaker)
	?FeatureEnabled@VRUtils@@SAHW4TVRFeature@@@Z @ 9 NONAME ; int VRUtils::FeatureEnabled(enum TVRFeature)
	?GenerateUniqueFilenameL@VRUtils@@SAXAAVRFs@@AAV?$TBuf@$0BAA@@@W4TVRFiletype@@@Z @ 10 NONAME ; void VRUtils::GenerateUniqueFilenameL(class RFs &, class TBuf<256> &, enum TVRFiletype)
	?GetMMCInfo@VRUtils@@SAXAAVTVRDriveInfo@@@Z @ 11 NONAME ; void VRUtils::GetMMCInfo(class TVRDriveInfo &)
	?GetNewNameL@TVRRename@@QAEHABVTDesC16@@AAVTDes16@@H@Z @ 12 NONAME ; int TVRRename::GetNewNameL(class TDesC16 const &, class TDes16 &, int)
	?MaxLengthL@VRUtils@@SAHXZ @ 13 NONAME ; int VRUtils::MaxLengthL(void)
	?MemoCount@VRUtils@@SAHXZ @ 14 NONAME ; int VRUtils::MemoCount(void)
	?MemoDriveL@VRUtils@@SAHXZ @ 15 NONAME ; int VRUtils::MemoDriveL(void)
	?MemoStoreDirectoryL@VRUtils@@SAXAAVTDes16@@@Z @ 16 NONAME ; void VRUtils::MemoStoreDirectoryL(class TDes16 &)
	?MemoStoreL@VRUtils@@SA?AW4TVRMemoStore@@XZ @ 17 NONAME ; enum TVRMemoStore VRUtils::MemoStoreL(void)
	?QualityL@VRUtils@@SA?AW4TVRQuality@@XZ @ 18 NONAME ; enum TVRQuality VRUtils::QualityL(void)
	?RenameL@TVRRename@@QAEHAAVRFile@@H@Z @ 19 NONAME ; int TVRRename::RenameL(class RFile &, int)
	?RenameL@TVRRename@@QAEHAAVTDes16@@H@Z @ 20 NONAME ; int TVRRename::RenameL(class TDes16 &, int)
	?SetDefaultSpeakerL@VRUtils@@SAXW4TVRSpeaker@@@Z @ 21 NONAME ; void VRUtils::SetDefaultSpeakerL(enum TVRSpeaker)
	?SetDefaultVolumeL@VRUtils@@SAXW4TVRSpeaker@@H@Z @ 22 NONAME ; void VRUtils::SetDefaultVolumeL(enum TVRSpeaker, int)
	?SetMemoCount@VRUtils@@SAXH@Z @ 23 NONAME ; void VRUtils::SetMemoCount(int)
	?SetMemoDriveL@VRUtils@@SAXW4TDriveNumber@@@Z @ 24 NONAME ; void VRUtils::SetMemoDriveL(enum TDriveNumber)
	?SetMemoStoreL@VRUtils@@SAXW4TVRMemoStore@@@Z @ 25 NONAME ; void VRUtils::SetMemoStoreL(enum TVRMemoStore)
	?SetQualityL@VRUtils@@SAXW4TVRQuality@@@Z @ 26 NONAME ; void VRUtils::SetQualityL(enum TVRQuality)
	?ShowMemoryFullConfirmationQuery@VRUtils@@SAXH@Z @ 27 NONAME ; void VRUtils::ShowMemoryFullConfirmationQuery(int)
	?UnsupportedCallTypeOngoing@VRUtils@@SAHH@Z @ 28 NONAME ; int VRUtils::UnsupportedCallTypeOngoing(int)
	?GetDriveInfo@VRUtils@@SAHHAAI@Z @ 29 NONAME ; int VRUtils::GetDriveInfo(int, unsigned int &)
	?IsUsbActive@CVRUSBStateHanlder@@SAHXZ @ 30 NONAME ; int CVRUSBStateHanlder::IsUsbActive(void)
	?NewL@CVRUSBStateHanlder@@SAPAV1@PAVMVRUSBStateObserver@@@Z @ 31 NONAME ; class CVRUSBStateHanlder * CVRUSBStateHanlder::NewL(class MVRUSBStateObserver *)
	?DriveValid@VRUtils@@SAHH@Z @ 32 NONAME ; int VRUtils::DriveValid(int)

